target datalayout = "e-m:e-p270:32:32-p271:32:32-p272:64:64-i64:64-i128:128-f80:128-n8:16:32:64-S128"
target triple = "x86_64-pc-linux-gnu"

%"class.Json::Value" = type { %"union.Json::Value::ValueHolder", %struct.anon, %"class.Json::Value::Comments", i64, i64 }
%"union.Json::Value::ValueHolder" = type { i64 }
%struct.anon = type { i16, [2 x i8] }
%"class.Json::Value::Comments" = type { %"class.std::unique_ptr.220" }
%"class.std::unique_ptr.220" = type { %"struct.std::__uniq_ptr_data.221" }
%"struct.std::__uniq_ptr_data.221" = type { %"class.std::__uniq_ptr_impl.222" }
%"class.std::__uniq_ptr_impl.222" = type { %"class.std::tuple.223" }
%"class.std::tuple.223" = type { %"struct.std::_Tuple_impl.224" }
%"struct.std::_Tuple_impl.224" = type { %"struct.std::_Head_base.227" }
%"struct.std::_Head_base.227" = type { ptr }

@.str.74 = private unnamed_addr constant [23 x i8] c"3.29.20240308-gaac1597\00", align 1
@.str.75 = private unnamed_addr constant [7 x i8] c"string\00", align 1
@.str.76 = private unnamed_addr constant [6 x i8] c"major\00", align 1
@.str.77 = private unnamed_addr constant [6 x i8] c"minor\00", align 1
@.str.78 = private unnamed_addr constant [9 x i8] c"gaac1597\00", align 1
@.str.79 = private unnamed_addr constant [7 x i8] c"suffix\00", align 1
@.str.80 = private unnamed_addr constant [8 x i8] c"isDirty\00", align 1
@.str.81 = private unnamed_addr constant [6 x i8] c"patch\00", align 1

; Function Attrs: mustprogress uwtable
define dso_local void @_ZNK5cmake17ReportVersionJsonEv(ptr dead_on_unwind noalias writable sret(%"class.Json::Value") align 8 %0, ptr noundef nonnull align 8 dereferenceable(2216) %1) #4 align 2 personality ptr @__gxx_personality_v0 {
  %3 = alloca ptr, align 8
  %4 = alloca ptr, align 8
  %5 = alloca i1, align 1
  %6 = alloca %"class.Json::Value", align 8
  %7 = alloca ptr, align 8
  %8 = alloca i32, align 4
  %9 = alloca %"class.Json::Value", align 8
  %10 = alloca %"class.Json::Value", align 8
  %11 = alloca %"class.Json::Value", align 8
  %12 = alloca %"class.Json::Value", align 8
  %13 = alloca %"class.Json::Value", align 8
  store ptr %0, ptr %3, align 8
  store ptr %1, ptr %4, align 8
  store i1 false, ptr %5, align 1
  call void @_ZN4Json5ValueC1ENS_9ValueTypeE(ptr noundef nonnull align 8 dereferenceable(40) %0, i32 noundef 7)
  invoke void @_ZN4Json5ValueC1EPKc(ptr noundef nonnull align 8 dereferenceable(40) %6, ptr noundef @.str.74)
          to label %14 unwind label %39

14:                                               ; preds = %2
  %15 = invoke noundef nonnull align 8 dereferenceable(40) ptr @_ZN4Json5ValueixEPKc(ptr noundef nonnull align 8 dereferenceable(40) %0, ptr noundef @.str.75)
          to label %16 unwind label %43

16:                                               ; preds = %14
  %17 = call noundef nonnull align 8 dereferenceable(40) ptr @_ZN4Json5ValueaSEOS0_(ptr noundef nonnull align 8 dereferenceable(40) %15, ptr noundef nonnull align 8 dereferenceable(40) %6) #3
  call void @_ZN4Json5ValueD1Ev(ptr noundef nonnull align 8 dereferenceable(40) %6) #3
  invoke void @_ZN4Json5ValueC1Ei(ptr noundef nonnull align 8 dereferenceable(40) %9, i32 noundef 3)
          to label %18 unwind label %39

18:                                               ; preds = %16
  %19 = invoke noundef nonnull align 8 dereferenceable(40) ptr @_ZN4Json5ValueixEPKc(ptr noundef nonnull align 8 dereferenceable(40) %0, ptr noundef @.str.76)
          to label %20 unwind label %47

20:                                               ; preds = %18
  %21 = call noundef nonnull align 8 dereferenceable(40) ptr @_ZN4Json5ValueaSEOS0_(ptr noundef nonnull align 8 dereferenceable(40) %19, ptr noundef nonnull align 8 dereferenceable(40) %9) #3
  call void @_ZN4Json5ValueD1Ev(ptr noundef nonnull align 8 dereferenceable(40) %9) #3
  invoke void @_ZN4Json5ValueC1Ei(ptr noundef nonnull align 8 dereferenceable(40) %10, i32 noundef 29)
          to label %22 unwind label %39

22:                                               ; preds = %20
  %23 = invoke noundef nonnull align 8 dereferenceable(40) ptr @_ZN4Json5ValueixEPKc(ptr noundef nonnull align 8 dereferenceable(40) %0, ptr noundef @.str.77)
          to label %24 unwind label %51

24:                                               ; preds = %22
  %25 = call noundef nonnull align 8 dereferenceable(40) ptr @_ZN4Json5ValueaSEOS0_(ptr noundef nonnull align 8 dereferenceable(40) %23, ptr noundef nonnull align 8 dereferenceable(40) %10) #3
  call void @_ZN4Json5ValueD1Ev(ptr noundef nonnull align 8 dereferenceable(40) %10) #3
  invoke void @_ZN4Json5ValueC1EPKc(ptr noundef nonnull align 8 dereferenceable(40) %11, ptr noundef @.str.78)
          to label %26 unwind label %39

26:                                               ; preds = %24
  %27 = invoke noundef nonnull align 8 dereferenceable(40) ptr @_ZN4Json5ValueixEPKc(ptr noundef nonnull align 8 dereferenceable(40) %0, ptr noundef @.str.79)
          to label %28 unwind label %55

28:                                               ; preds = %26
  %29 = call noundef nonnull align 8 dereferenceable(40) ptr @_ZN4Json5ValueaSEOS0_(ptr noundef nonnull align 8 dereferenceable(40) %27, ptr noundef nonnull align 8 dereferenceable(40) %11) #3
  call void @_ZN4Json5ValueD1Ev(ptr noundef nonnull align 8 dereferenceable(40) %11) #3
  invoke void @_ZN4Json5ValueC1Eb(ptr noundef nonnull align 8 dereferenceable(40) %12, i1 noundef zeroext false)
          to label %30 unwind label %39

30:                                               ; preds = %28
  %31 = invoke noundef nonnull align 8 dereferenceable(40) ptr @_ZN4Json5ValueixEPKc(ptr noundef nonnull align 8 dereferenceable(40) %0, ptr noundef @.str.80)
          to label %32 unwind label %59

32:                                               ; preds = %30
  %33 = call noundef nonnull align 8 dereferenceable(40) ptr @_ZN4Json5ValueaSEOS0_(ptr noundef nonnull align 8 dereferenceable(40) %31, ptr noundef nonnull align 8 dereferenceable(40) %12) #3
  call void @_ZN4Json5ValueD1Ev(ptr noundef nonnull align 8 dereferenceable(40) %12) #3
  invoke void @_ZN4Json5ValueC1Ei(ptr noundef nonnull align 8 dereferenceable(40) %13, i32 noundef 20240308)
          to label %34 unwind label %39

34:                                               ; preds = %32
  %35 = invoke noundef nonnull align 8 dereferenceable(40) ptr @_ZN4Json5ValueixEPKc(ptr noundef nonnull align 8 dereferenceable(40) %0, ptr noundef @.str.81)
          to label %36 unwind label %63

36:                                               ; preds = %34
  %37 = call noundef nonnull align 8 dereferenceable(40) ptr @_ZN4Json5ValueaSEOS0_(ptr noundef nonnull align 8 dereferenceable(40) %35, ptr noundef nonnull align 8 dereferenceable(40) %13) #3
  call void @_ZN4Json5ValueD1Ev(ptr noundef nonnull align 8 dereferenceable(40) %13) #3
  store i1 true, ptr %5, align 1
  %38 = load i1, ptr %5, align 1
  br i1 %38, label %68, label %67

39:                                               ; preds = %32, %28, %24, %20, %16, %2
  %40 = landingpad { ptr, i32 }
          cleanup
  %41 = extractvalue { ptr, i32 } %40, 0
  store ptr %41, ptr %7, align 8
  %42 = extractvalue { ptr, i32 } %40, 1
  store i32 %42, ptr %8, align 4
  br label %69

43:                                               ; preds = %14
  %44 = landingpad { ptr, i32 }
          cleanup
  %45 = extractvalue { ptr, i32 } %44, 0
  store ptr %45, ptr %7, align 8
  %46 = extractvalue { ptr, i32 } %44, 1
  store i32 %46, ptr %8, align 4
  call void @_ZN4Json5ValueD1Ev(ptr noundef nonnull align 8 dereferenceable(40) %6) #3
  br label %69

47:                                               ; preds = %18
  %48 = landingpad { ptr, i32 }
          cleanup
  %49 = extractvalue { ptr, i32 } %48, 0
  store ptr %49, ptr %7, align 8
  %50 = extractvalue { ptr, i32 } %48, 1
  store i32 %50, ptr %8, align 4
  call void @_ZN4Json5ValueD1Ev(ptr noundef nonnull align 8 dereferenceable(40) %9) #3
  br label %69

51:                                               ; preds = %22
  %52 = landingpad { ptr, i32 }
          cleanup
  %53 = extractvalue { ptr, i32 } %52, 0
  store ptr %53, ptr %7, align 8
  %54 = extractvalue { ptr, i32 } %52, 1
  store i32 %54, ptr %8, align 4
  call void @_ZN4Json5ValueD1Ev(ptr noundef nonnull align 8 dereferenceable(40) %10) #3
  br label %69

55:                                               ; preds = %26
  %56 = landingpad { ptr, i32 }
          cleanup
  %57 = extractvalue { ptr, i32 } %56, 0
  store ptr %57, ptr %7, align 8
  %58 = extractvalue { ptr, i32 } %56, 1
  store i32 %58, ptr %8, align 4
  call void @_ZN4Json5ValueD1Ev(ptr noundef nonnull align 8 dereferenceable(40) %11) #3
  br label %69

59:                                               ; preds = %30
  %60 = landingpad { ptr, i32 }
          cleanup
  %61 = extractvalue { ptr, i32 } %60, 0
  store ptr %61, ptr %7, align 8
  %62 = extractvalue { ptr, i32 } %60, 1
  store i32 %62, ptr %8, align 4
  call void @_ZN4Json5ValueD1Ev(ptr noundef nonnull align 8 dereferenceable(40) %12) #3
  br label %69

63:                                               ; preds = %34
  %64 = landingpad { ptr, i32 }
          cleanup
  %65 = extractvalue { ptr, i32 } %64, 0
  store ptr %65, ptr %7, align 8
  %66 = extractvalue { ptr, i32 } %64, 1
  store i32 %66, ptr %8, align 4
  call void @_ZN4Json5ValueD1Ev(ptr noundef nonnull align 8 dereferenceable(40) %13) #3
  br label %69

67:                                               ; preds = %36
  call void @_ZN4Json5ValueD1Ev(ptr noundef nonnull align 8 dereferenceable(40) %0) #3
  br label %68

68:                                               ; preds = %67, %36
  ret void

69:                                               ; preds = %63, %59, %55, %51, %47, %43, %39
  call void @_ZN4Json5ValueD1Ev(ptr noundef nonnull align 8 dereferenceable(40) %0) #3
  br label %70

70:                                               ; preds = %69
  %71 = load ptr, ptr %7, align 8
  %72 = load i32, ptr %8, align 4
  %73 = insertvalue { ptr, i32 } poison, ptr %71, 0
  %74 = insertvalue { ptr, i32 } %73, i32 %72, 1
  resume { ptr, i32 } %74
}