; Function Attrs: mustprogress uwtable
define dso_local void @_ZNK5cmake17ReportVersionJsonEv(ptr dead_on_unwind noalias nonnull writable sret(%"class.Json::Value") align 8 %0, ptr nocapture nonnull readnone align 8 %1) local_unnamed_addr #3 align 2 personality ptr @__gxx_personality_v0 {
  %3 = alloca %"class.Json::Value", align 8
  %4 = alloca %"class.Json::Value", align 8
  %5 = alloca %"class.Json::Value", align 8
  %6 = alloca %"class.Json::Value", align 8
  %7 = alloca %"class.Json::Value", align 8
  %8 = alloca %"class.Json::Value", align 8
  tail call void @_ZN4Json5ValueC1ENS_9ValueTypeE(ptr noundef nonnull align 8 dereferenceable(40) %0, i32 noundef 7)
  invoke void @_ZN4Json5ValueC1EPKc(ptr noundef nonnull align 8 dereferenceable(40) %3, ptr noundef nonnull @.str.74)
          to label %9 unwind label %33

9:                                                ; preds = %2
  %10 = invoke noundef nonnull align 8 dereferenceable(40) ptr @_ZN4Json5ValueixEPKc(ptr noundef nonnull align 8 dereferenceable(40) %0, ptr noundef nonnull @.str.75)
          to label %11 unwind label %35

11:                                               ; preds = %9
  %12 = call noundef nonnull align 8 dereferenceable(40) ptr @_ZN4Json5ValueaSEOS0_(ptr noundef nonnull align 8 dereferenceable(40) %10, ptr noundef nonnull align 8 dereferenceable(40) %3) #30
  call void @_ZN4Json5ValueD1Ev(ptr noundef nonnull align 8 dereferenceable(40) %3) #30
  invoke void @_ZN4Json5ValueC1Ei(ptr noundef nonnull align 8 dereferenceable(40) %4, i32 noundef 3)
          to label %13 unwind label %33

13:                                               ; preds = %11
  %14 = invoke noundef nonnull align 8 dereferenceable(40) ptr @_ZN4Json5ValueixEPKc(ptr noundef nonnull align 8 dereferenceable(40) %0, ptr noundef nonnull @.str.76)
          to label %15 unwind label %37

15:                                               ; preds = %13
  %16 = call noundef nonnull align 8 dereferenceable(40) ptr @_ZN4Json5ValueaSEOS0_(ptr noundef nonnull align 8 dereferenceable(40) %14, ptr noundef nonnull align 8 dereferenceable(40) %4) #30
  call void @_ZN4Json5ValueD1Ev(ptr noundef nonnull align 8 dereferenceable(40) %4) #30
  invoke void @_ZN4Json5ValueC1Ei(ptr noundef nonnull align 8 dereferenceable(40) %5, i32 noundef 29)
          to label %17 unwind label %33

17:                                               ; preds = %15
  %18 = invoke noundef nonnull align 8 dereferenceable(40) ptr @_ZN4Json5ValueixEPKc(ptr noundef nonnull align 8 dereferenceable(40) %0, ptr noundef nonnull @.str.77)
          to label %19 unwind label %39

19:                                               ; preds = %17
  %20 = call noundef nonnull align 8 dereferenceable(40) ptr @_ZN4Json5ValueaSEOS0_(ptr noundef nonnull align 8 dereferenceable(40) %18, ptr noundef nonnull align 8 dereferenceable(40) %5) #30
  call void @_ZN4Json5ValueD1Ev(ptr noundef nonnull align 8 dereferenceable(40) %5) #30
  invoke void @_ZN4Json5ValueC1EPKc(ptr noundef nonnull align 8 dereferenceable(40) %6, ptr noundef nonnull @.str.78)
          to label %21 unwind label %33

21:                                               ; preds = %19
  %22 = invoke noundef nonnull align 8 dereferenceable(40) ptr @_ZN4Json5ValueixEPKc(ptr noundef nonnull align 8 dereferenceable(40) %0, ptr noundef nonnull @.str.79)
          to label %23 unwind label %41

23:                                               ; preds = %21
  %24 = call noundef nonnull align 8 dereferenceable(40) ptr @_ZN4Json5ValueaSEOS0_(ptr noundef nonnull align 8 dereferenceable(40) %22, ptr noundef nonnull align 8 dereferenceable(40) %6) #30
  call void @_ZN4Json5ValueD1Ev(ptr noundef nonnull align 8 dereferenceable(40) %6) #30
  invoke void @_ZN4Json5ValueC1Eb(ptr noundef nonnull align 8 dereferenceable(40) %7, i1 noundef zeroext false)
          to label %25 unwind label %33

25:                                               ; preds = %23
  %26 = invoke noundef nonnull align 8 dereferenceable(40) ptr @_ZN4Json5ValueixEPKc(ptr noundef nonnull align 8 dereferenceable(40) %0, ptr noundef nonnull @.str.80)
          to label %27 unwind label %43

27:                                               ; preds = %25
  %28 = call noundef nonnull align 8 dereferenceable(40) ptr @_ZN4Json5ValueaSEOS0_(ptr noundef nonnull align 8 dereferenceable(40) %26, ptr noundef nonnull align 8 dereferenceable(40) %7) #30
  call void @_ZN4Json5ValueD1Ev(ptr noundef nonnull align 8 dereferenceable(40) %7) #30
  invoke void @_ZN4Json5ValueC1Ei(ptr noundef nonnull align 8 dereferenceable(40) %8, i32 noundef 20240308)
          to label %29 unwind label %33

29:                                               ; preds = %27
  %30 = invoke noundef nonnull align 8 dereferenceable(40) ptr @_ZN4Json5ValueixEPKc(ptr noundef nonnull align 8 dereferenceable(40) %0, ptr noundef nonnull @.str.81)
          to label %31 unwind label %45

31:                                               ; preds = %29
  %32 = call noundef nonnull align 8 dereferenceable(40) ptr @_ZN4Json5ValueaSEOS0_(ptr noundef nonnull align 8 dereferenceable(40) %30, ptr noundef nonnull align 8 dereferenceable(40) %8) #30
  call void @_ZN4Json5ValueD1Ev(ptr noundef nonnull align 8 dereferenceable(40) %8) #30
  ret void

33:                                               ; preds = %27, %23, %19, %15, %11, %2
  %34 = landingpad { ptr, i32 }
          cleanup
  br label %47

35:                                               ; preds = %9
  %36 = landingpad { ptr, i32 }
          cleanup
  call void @_ZN4Json5ValueD1Ev(ptr noundef nonnull align 8 dereferenceable(40) %3) #30
  br label %47

37:                                               ; preds = %13
  %38 = landingpad { ptr, i32 }
          cleanup
  call void @_ZN4Json5ValueD1Ev(ptr noundef nonnull align 8 dereferenceable(40) %4) #30
  br label %47

39:                                               ; preds = %17
  %40 = landingpad { ptr, i32 }
          cleanup
  call void @_ZN4Json5ValueD1Ev(ptr noundef nonnull align 8 dereferenceable(40) %5) #30
  br label %47

41:                                               ; preds = %21
  %42 = landingpad { ptr, i32 }
          cleanup
  call void @_ZN4Json5ValueD1Ev(ptr noundef nonnull align 8 dereferenceable(40) %6) #30
  br label %47

43:                                               ; preds = %25
  %44 = landingpad { ptr, i32 }
          cleanup
  call void @_ZN4Json5ValueD1Ev(ptr noundef nonnull align 8 dereferenceable(40) %7) #30
  br label %47

45:                                               ; preds = %29
  %46 = landingpad { ptr, i32 }
          cleanup
  call void @_ZN4Json5ValueD1Ev(ptr noundef nonnull align 8 dereferenceable(40) %8) #30
  br label %47

47:                                               ; preds = %45, %43, %41, %39, %37, %35, %33
  %.pn = phi { ptr, i32 } [ %46, %45 ], [ %34, %33 ], [ %44, %43 ], [ %42, %41 ], [ %40, %39 ], [ %38, %37 ], [ %36, %35 ]
  call void @_ZN4Json5ValueD1Ev(ptr noundef nonnull align 8 dereferenceable(40) %0) #30
  resume { ptr, i32 } %.pn
}